(dp0
I0
I0
sI1
I0
sI2
I0
sI3
I1
sI4
I1
sI5
I1
sI6
I1
sI7
I1
sI8
I2
sI9
I4
sI10
I5
sI11
I5
sI12
I7
sI13
I8
sI14
I10
sI15
I11
sI16
I12
sI17
I12
sI18
I13
sI19
I15
sI20
I17
sI21
I18
sI22
I18
sI23
I18
sI24
I18
sI25
I18
sI26
I20
sI27
I20
sI28
I21
sI29
I22
sI30
I23
sI31
I23
sI32
I23
sI33
I23
sI34
I23
sI35
I23
sI36
I26
sI37
I27
sI38
I28
sI39
I29
sI40
I29
sI41
I29
sI42
I31
sI43
I32
sI44
I32
sI45
I35
sI46
I37
sI47
I38
sI48
I38
sI49
I38
sI50
I39
sI51
I39
sI52
I40
sI53
I42
sI54
I42
sI55
I42
sI56
I42
sI57
I43
sI58
I44
sI59
I44
sI60
I45
sI61
I46
sI62
I47
sI63
I47
sI64
I49
sI65
I49
sI66
I49
sI67
I50
sI68
I50
sI69
I50
sI70
I52
sI71
I52
sI72
I52
sI73
I52
sI74
I52
sI75
I53
sI76
I53
sI77
I54
sI78
I54
sI79
I55
sI80
I55
sI81
I56
sI82
I57
sI83
I57
sI84
I58
sI85
I60
sI86
I60
sI87
I60
sI88
I61
sI89
I62
sI90
I62
sI91
I63
sI92
I65
sI93
I66
sI94
I67
sI95
I67
sI96
I68
sI97
I69
sI98
I70
sI99
I71
sI100
I73
sI101
I73
sI102
I74
sI103
I75
sI104
I75
sI105
I75
sI106
I76
sI107
I77
sI108
I78
sI109
I78
sI110
I78
sI111
I78
sI112
I79
sI113
I79
sI114
I79
sI115
I81
sI116
I83
sI117
I84
sI118
I84
sI119
I84
sI120
I84
sI121
I84
sI122
I85
sI123
I85
sI124
I86
sI125
I86
sI126
I86
sI127
I86
sI128
I86
sI129
I87
sI130
I88
sI131
I88
sI132
I88
sI133
I88
sI134
I88
sI135
I88
sI136
I89
sI137
I89
sI138
I90
sI139
I91
sI140
I93
sI141
I94
sI142
I96
sI143
I96
sI144
I97
sI145
I97
sI146
I98
sI147
I98
sI148
I101
sI149
I101
sI150
I102
sI151
I105
sI152
I106
sI153
I106
sI154
I106
sI155
I108
sI156
I108
sI157
I110
sI158
I111
sI159
I112
sI160
I112
sI161
I114
sI162
I115
sI163
I116
sI164
I117
sI165
I118
sI166
I119
sI167
I120
sI168
I121
sI169
I123
sI170
I124
sI171
I126
sI172
I127
sI173
I129
sI174
I129
sI175
I129
sI176
I129
sI177
I129
sI178
I129
sI179
I130
sI180
I130
sI181
I131
sI182
I131
sI183
I132
sI184
I132
sI185
I132
sI186
I132
sI187
I132
sI188
I133
sI189
I135
sI190
I135
sI191
I138
sI192
I140
sI193
I142
sI194
I142
sI195
I142
sI196
I142
sI197
I142
sI198
I142
sI199
I142
sI200
I142
sI201
I143
sI202
I144
sI203
I144
sI204
I144
sI205
I145
sI206
I146
sI207
I146
sI208
I146
sI209
I147
sI210
I150
sI211
I150
sI212
I150
sI213
I154
sI214
I155
sI215
I156
sI216
I157
sI217
I158
sI218
I159
sI219
I159
sI220
I160
sI221
I160
sI222
I161
sI223
I162
sI224
I164
sI225
I165
sI226
I165
sI227
I165
sI228
I167
sI229
I168
sI230
I169
sI231
I169
sI232
I169
sI233
I173
sI234
I173
sI235
I174
sI236
I174
sI237
I177
sI238
I177
sI239
I179
sI240
I180
sI241
I180
sI242
I180
sI243
I181
sI244
I182
sI245
I184
sI246
I186
sI247
I186
sI248
I187
sI249
I187
sI250
I187
sI251
I188
sI252
I188
sI253
I188
sI254
I189
sI255
I189
sI256
I189
sI257
I189
sI258
I189
sI259
I189
sI260
I190
sI261
I192
sI262
I195
sI263
I197
sI264
I197
sI265
I198
sI266
I198
sI267
I199
sI268
I199
sI269
I201
sI270
I201
sI271
I201
sI272
I202
sI273
I202
sI274
I202
sI275
I202
sI276
I203
sI277
I203
sI278
I205
sI279
I206
sI280
I206
sI281
I206
sI282
I207
sI283
I208
sI284
I210
sI285
I211
sI286
I211
sI287
I212
sI288
I213
sI289
I216
sI290
I217
sI291
I217
sI292
I217
sI293
I218
sI294
I218
sI295
I221
sI296
I221
sI297
I221
sI298
I221
sI299
I225
sI300
I226
sI301
I227
sI302
I227
sI303
I228
sI304
I228
sI305
I228
sI306
I231
sI307
I232
sI308
I233
sI309
I233
sI310
I235
sI311
I236
sI312
I237
sI313
I240
sI314
I240
sI315
I241
sI316
I241
sI317
I241
sI318
I241
sI319
I241
sI320
I243
sI321
I243
sI322
I243
sI323
I245
sI324
I246
sI325
I246
sI326
I247
sI327
I249
sI328
I249
sI329
I252
sI330
I253
sI331
I253
sI332
I254
sI333
I256
sI334
I256
sI335
I257
sI336
I257
sI337
I258
sI338
I258
sI339
I258
sI340
I259
sI341
I259
sI342
I260
sI343
I260
sI344
I262
sI345
I262
sI346
I262
sI347
I264
sI348
I264
sI349
I264
sI350
I264
sI351
I264
sI352
I264
sI353
I265
sI354
I268
sI355
I270
sI356
I270
sI357
I272
sI358
I274
sI359
I276
sI360
I276
sI361
I277
sI362
I277
sI363
I280
sI364
I283
sI365
I284
sI366
I284
sI367
I287
sI368
I289
sI369
I289
sI370
I289
sI371
I289
sI372
I289
sI373
I289
sI374
I289
sI375
I291
sI376
I291
sI377
I291
sI378
I295
sI379
I297
sI380
I297
sI381
I298
sI382
I300
sI383
I300
sI384
I301
sI385
I303
sI386
I305
sI387
I305
sI388
I307
sI389
I307
sI390
I308
sI391
I308
sI392
I308
sI393
I310
sI394
I310
sI395
I310
sI396
I312
sI397
I312
sI398
I312
sI399
I312
sI400
I313
sI401
I313
sI402
I313
sI403
I315
sI404
I315
sI405
I318
sI406
I318
sI407
I319
sI408
I319
sI409
I319
sI410
I319
sI411
I321
sI412
I321
sI413
I321
sI414
I322
s.