(dp0
I0
I0
sI1
I0
sI2
I0
sI3
I0
sI4
I0
sI5
I0
sI6
I0
sI7
I0
sI8
I0
sI9
I0
sI10
I2
sI11
I8
sI12
I15
sI13
I23
sI14
I30
sI15
I41
sI16
I59
sI17
I63
sI18
I76
sI19
I83
sI20
I95
sI21
I102
sI22
I105
sI23
I115
sI24
I124
sI25
I128
sI26
I137
sI27
I150
sI28
I161
sI29
I168
sI30
I179
sI31
I187
sI32
I194
sI33
I204
sI34
I208
sI35
I214
sI36
I221
sI37
I225
sI38
I233
sI39
I235
sI40
I241
sI41
I246
sI42
I252
sI43
I254
sI44
I260
sI45
I267
sI46
I274
sI47
I281
sI48
I286
sI49
I293
sI50
I296
sI51
I301
sI52
I303
sI53
I307
sI54
I310
sI55
I321
sI56
I324
sI57
I330
sI58
I333
sI59
I333
sI60
I340
sI61
I341
sI62
I343
sI63
I344
sI64
I350
sI65
I350
sI66
I354
sI67
I355
sI68
I357
sI69
I361
sI70
I361
sI71
I364
sI72
I365
sI73
I365
sI74
I365
sI75
I365
sI76
I367
sI77
I374
sI78
I374
sI79
I377
sI80
I378
sI81
I379
sI82
I381
sI83
I381
sI84
I382
sI85
I383
sI86
I385
sI87
I385
sI88
I386
sI89
I386
sI90
I388
sI91
I388
sI92
I388
sI93
I390
sI94
I392
sI95
I392
sI96
I392
sI97
I392
sI98
I393
sI99
I393
sI100
I394
sI101
I394
sI102
I395
sI103
I395
sI104
I396
sI105
I398
sI106
I400
sI107
I400
sI108
I403
sI109
I403
sI110
I403
sI111
I405
sI112
I407
sI113
I408
sI114
I408
sI115
I409
sI116
I409
sI117
I409
sI118
I409
sI119
I411
sI120
I411
sI121
I411
sI122
I411
sI123
I411
sI124
I411
sI125
I411
sI126
I411
sI127
I412
sI128
I414
sI129
I416
sI130
I417
sI131
I417
sI132
I419
sI133
I422
sI134
I423
sI135
I423
sI136
I423
sI137
I423
sI138
I423
sI139
I423
sI140
I423
sI141
I424
sI142
I424
sI143
I424
sI144
I424
sI145
I424
sI146
I424
sI147
I424
sI148
I425
sI149
I426
sI150
I426
sI151
I431
sI152
I433
sI153
I433
sI154
I433
sI155
I433
sI156
I433
sI157
I435
sI158
I435
sI159
I435
sI160
I435
sI161
I435
sI162
I437
sI163
I437
sI164
I437
sI165
I437
sI166
I437
sI167
I437
sI168
I437
sI169
I437
sI170
I437
sI171
I437
sI172
I437
sI173
I439
sI174
I441
sI175
I441
sI176
I441
sI177
I441
sI178
I441
sI179
I441
sI180
I441
sI181
I441
sI182
I441
sI183
I441
sI184
I441
sI185
I443
sI186
I443
sI187
I443
sI188
I443
sI189
I443
sI190
I443
sI191
I443
sI192
I443
sI193
I444
sI194
I444
sI195
I445
sI196
I445
sI197
I445
sI198
I445
sI199
I445
sI200
I445
sI201
I446
sI202
I446
sI203
I446
sI204
I446
sI205
I446
sI206
I446
sI207
I448
sI208
I449
sI209
I450
sI210
I451
sI211
I451
sI212
I451
sI213
I451
sI214
I451
sI215
I451
sI216
I451
sI217
I451
sI218
I451
sI219
I451
sI220
I451
sI221
I451
sI222
I452
sI223
I452
sI224
I452
sI225
I452
sI226
I452
sI227
I452
sI228
I452
sI229
I452
sI230
I452
sI231
I452
sI232
I452
sI233
I452
sI234
I452
sI235
I452
sI236
I452
sI237
I452
sI238
I452
sI239
I452
sI240
I452
sI241
I452
sI242
I452
sI243
I453
sI244
I453
sI245
I453
sI246
I453
sI247
I453
sI248
I453
sI249
I455
sI250
I457
sI251
I457
sI252
I457
sI253
I457
sI254
I457
sI255
I457
sI256
I457
sI257
I457
sI258
I457
sI259
I457
sI260
I457
sI261
I457
sI262
I457
sI263
I459
sI264
I459
sI265
I459
sI266
I459
sI267
I459
sI268
I459
sI269
I459
sI270
I459
sI271
I459
sI272
I459
sI273
I459
sI274
I459
sI275
I459
sI276
I459
sI277
I459
sI278
I459
sI279
I459
sI280
I459
sI281
I459
sI282
I459
sI283
I459
sI284
I459
sI285
I459
sI286
I459
sI287
I459
sI288
I459
sI289
I459
sI290
I459
sI291
I459
sI292
I459
sI293
I459
sI294
I459
sI295
I459
sI296
I459
sI297
I459
sI298
I459
sI299
I459
sI300
I459
sI301
I459
sI302
I459
sI303
I459
sI304
I459
sI305
I459
sI306
I459
sI307
I459
sI308
I459
sI309
I459
sI310
I459
sI311
I459
sI312
I459
sI313
I459
sI314
I459
sI315
I459
sI316
I459
sI317
I459
sI318
I459
sI319
I459
sI320
I459
sI321
I459
sI322
I459
sI323
I459
sI324
I459
sI325
I459
sI326
I459
sI327
I459
sI328
I459
sI329
I459
sI330
I459
sI331
I459
sI332
I459
sI333
I459
sI334
I459
sI335
I459
sI336
I459
sI337
I459
sI338
I459
sI339
I459
sI340
I459
sI341
I459
sI342
I459
sI343
I459
sI344
I459
sI345
I459
sI346
I459
sI347
I459
sI348
I459
sI349
I459
sI350
I459
sI351
I459
sI352
I459
sI353
I459
sI354
I459
sI355
I459
sI356
I459
sI357
I459
sI358
I459
sI359
I459
sI360
I459
sI361
I459
sI362
I459
sI363
I459
sI364
I459
sI365
I459
sI366
I459
sI367
I459
sI368
I459
sI369
I459
sI370
I459
sI371
I459
sI372
I459
sI373
I459
sI374
I459
sI375
I459
sI376
I459
sI377
I459
sI378
I459
sI379
I459
sI380
I459
sI381
I460
sI382
I460
sI383
I460
sI384
I460
sI385
I460
sI386
I461
sI387
I461
sI388
I461
sI389
I461
sI390
I461
sI391
I461
sI392
I461
sI393
I461
sI394
I461
sI395
I461
sI396
I461
sI397
I461
sI398
I461
sI399
I461
sI400
I461
sI401
I461
sI402
I461
sI403
I461
sI404
I461
sI405
I461
sI406
I461
sI407
I461
sI408
I461
sI409
I461
sI410
I461
sI411
I461
sI412
I461
sI413
I461
sI414
I461
s.