(dp0
I0
I0
sI1
I1
sI2
I1
sI3
I2
sI4
I2
sI5
I6
sI6
I6
sI7
I12
sI8
I14
sI9
I14
sI10
I16
sI11
I16
sI12
I18
sI13
I23
sI14
I23
sI15
I28
sI16
I28
sI17
I30
sI18
I33
sI19
I37
sI20
I39
sI21
I45
sI22
I45
sI23
I45
sI24
I48
sI25
I51
sI26
I52
sI27
I58
sI28
I60
sI29
I65
sI30
I65
sI31
I66
sI32
I70
sI33
I70
sI34
I70
sI35
I70
sI36
I70
sI37
I70
sI38
I75
sI39
I78
sI40
I79
sI41
I80
sI42
I84
sI43
I84
sI44
I87
sI45
I87
sI46
I87
sI47
I89
sI48
I90
sI49
I92
sI50
I99
sI51
I105
sI52
I105
sI53
I107
sI54
I109
sI55
I111
sI56
I111
sI57
I116
sI58
I117
sI59
I119
sI60
I119
sI61
I123
sI62
I126
sI63
I130
sI64
I132
sI65
I133
sI66
I133
sI67
I135
sI68
I136
sI69
I141
sI70
I142
sI71
I145
sI72
I147
sI73
I151
sI74
I154
sI75
I155
sI76
I155
sI77
I156
sI78
I156
sI79
I159
sI80
I159
sI81
I159
sI82
I161
sI83
I162
sI84
I164
sI85
I165
sI86
I165
sI87
I167
sI88
I167
sI89
I171
sI90
I172
sI91
I172
sI92
I172
sI93
I174
sI94
I174
sI95
I174
sI96
I174
sI97
I174
sI98
I183
sI99
I193
sI100
I203
sI101
I217
sI102
I221
sI103
I222
sI104
I225
sI105
I226
sI106
I227
sI107
I236
sI108
I239
sI109
I240
sI110
I243
sI111
I246
sI112
I248
sI113
I251
sI114
I251
sI115
I252
sI116
I253
sI117
I256
sI118
I256
sI119
I261
sI120
I263
sI121
I265
sI122
I265
sI123
I267
sI124
I269
sI125
I271
sI126
I274
sI127
I280
sI128
I283
sI129
I285
sI130
I289
sI131
I294
sI132
I296
sI133
I301
sI134
I309
sI135
I313
sI136
I315
sI137
I319
sI138
I323
sI139
I326
sI140
I330
sI141
I335
sI142
I337
sI143
I339
sI144
I341
sI145
I341
sI146
I342
sI147
I344
sI148
I345
sI149
I346
sI150
I351
sI151
I353
sI152
I354
sI153
I357
sI154
I363
sI155
I365
sI156
I366
sI157
I370
sI158
I374
sI159
I375
sI160
I378
sI161
I379
sI162
I381
sI163
I381
sI164
I381
sI165
I388
sI166
I391
sI167
I393
sI168
I396
sI169
I400
sI170
I402
sI171
I405
sI172
I411
sI173
I416
sI174
I422
sI175
I424
sI176
I429
sI177
I433
sI178
I434
sI179
I442
sI180
I446
sI181
I448
sI182
I452
sI183
I453
sI184
I458
sI185
I462
sI186
I463
sI187
I464
sI188
I466
sI189
I471
sI190
I472
sI191
I472
sI192
I472
sI193
I472
sI194
I475
sI195
I479
sI196
I480
sI197
I481
sI198
I483
sI199
I488
sI200
I494
sI201
I495
sI202
I495
sI203
I495
sI204
I497
sI205
I497
sI206
I499
sI207
I500
sI208
I500
sI209
I500
sI210
I507
sI211
I510
sI212
I511
sI213
I512
sI214
I518
sI215
I522
sI216
I525
sI217
I530
sI218
I534
sI219
I535
sI220
I538
sI221
I538
sI222
I540
sI223
I543
sI224
I543
sI225
I544
sI226
I545
sI227
I545
sI228
I546
sI229
I546
sI230
I546
sI231
I549
sI232
I554
sI233
I555
sI234
I555
sI235
I555
sI236
I555
sI237
I555
sI238
I556
sI239
I558
sI240
I558
sI241
I558
sI242
I558
sI243
I559
sI244
I560
sI245
I561
sI246
I562
sI247
I563
sI248
I563
sI249
I564
sI250
I564
sI251
I567
sI252
I567
sI253
I568
sI254
I569
sI255
I569
sI256
I573
sI257
I575
sI258
I575
sI259
I575
sI260
I578
sI261
I578
sI262
I578
sI263
I578
sI264
I579
sI265
I581
sI266
I582
sI267
I582
sI268
I582
sI269
I583
sI270
I584
sI271
I584
sI272
I584
sI273
I585
sI274
I585
sI275
I586
sI276
I587
sI277
I587
sI278
I588
sI279
I588
sI280
I588
sI281
I590
sI282
I593
sI283
I594
sI284
I595
sI285
I595
sI286
I598
sI287
I601
sI288
I601
sI289
I603
sI290
I604
sI291
I604
sI292
I605
sI293
I607
sI294
I609
sI295
I610
sI296
I610
sI297
I610
sI298
I610
sI299
I612
sI300
I612
sI301
I612
sI302
I612
sI303
I612
sI304
I612
sI305
I612
sI306
I612
sI307
I614
sI308
I615
sI309
I617
sI310
I617
sI311
I617
sI312
I617
sI313
I617
sI314
I618
sI315
I618
sI316
I618
sI317
I618
sI318
I618
sI319
I618
sI320
I618
sI321
I618
sI322
I618
sI323
I618
sI324
I619
sI325
I619
sI326
I619
sI327
I619
sI328
I620
sI329
I620
sI330
I620
sI331
I620
sI332
I620
sI333
I621
sI334
I622
sI335
I622
sI336
I623
sI337
I623
sI338
I623
sI339
I623
sI340
I623
sI341
I623
sI342
I625
sI343
I625
sI344
I625
sI345
I625
sI346
I625
sI347
I625
sI348
I625
sI349
I625
sI350
I625
sI351
I625
sI352
I625
sI353
I626
sI354
I629
sI355
I629
sI356
I629
sI357
I629
sI358
I629
sI359
I629
sI360
I629
sI361
I629
sI362
I630
sI363
I631
sI364
I631
sI365
I631
sI366
I632
sI367
I632
sI368
I632
sI369
I633
sI370
I633
sI371
I633
sI372
I633
sI373
I633
sI374
I633
sI375
I633
sI376
I633
sI377
I633
sI378
I633
sI379
I633
sI380
I633
sI381
I633
sI382
I633
sI383
I633
sI384
I633
sI385
I633
sI386
I634
sI387
I634
sI388
I634
sI389
I634
sI390
I634
sI391
I634
sI392
I635
sI393
I635
sI394
I635
sI395
I635
sI396
I635
sI397
I635
sI398
I635
sI399
I635
sI400
I635
sI401
I635
sI402
I635
sI403
I635
sI404
I635
sI405
I635
sI406
I635
sI407
I635
sI408
I635
sI409
I635
sI410
I635
sI411
I635
sI412
I635
sI413
I635
sI414
I635
s.