(dp0
I0
I0
sI1
I3
sI2
I6
sI3
I9
sI4
I13
sI5
I15
sI6
I19
sI7
I23
sI8
I29
sI9
I31
sI10
I35
sI11
I39
sI12
I45
sI13
I50
sI14
I53
sI15
I54
sI16
I55
sI17
I60
sI18
I63
sI19
I64
sI20
I64
sI21
I70
sI22
I73
sI23
I79
sI24
I80
sI25
I83
sI26
I84
sI27
I85
sI28
I86
sI29
I86
sI30
I88
sI31
I90
sI32
I94
sI33
I94
sI34
I95
sI35
I99
sI36
I101
sI37
I101
sI38
I101
sI39
I104
sI40
I106
sI41
I106
sI42
I107
sI43
I109
sI44
I112
sI45
I112
sI46
I112
sI47
I113
sI48
I115
sI49
I118
sI50
I119
sI51
I120
sI52
I120
sI53
I121
sI54
I121
sI55
I124
sI56
I126
sI57
I127
sI58
I129
sI59
I129
sI60
I129
sI61
I130
sI62
I132
sI63
I133
sI64
I133
sI65
I135
sI66
I138
sI67
I140
sI68
I142
sI69
I143
sI70
I143
sI71
I143
sI72
I143
sI73
I144
sI74
I144
sI75
I144
sI76
I148
sI77
I152
sI78
I152
sI79
I152
sI80
I153
sI81
I153
sI82
I154
sI83
I154
sI84
I155
sI85
I157
sI86
I157
sI87
I157
sI88
I157
sI89
I157
sI90
I159
sI91
I159
sI92
I159
sI93
I159
sI94
I159
sI95
I159
sI96
I159
sI97
I160
sI98
I160
sI99
I161
sI100
I163
sI101
I165
sI102
I165
sI103
I167
sI104
I167
sI105
I169
sI106
I170
sI107
I170
sI108
I170
sI109
I172
sI110
I172
sI111
I174
sI112
I179
sI113
I179
sI114
I179
sI115
I181
sI116
I181
sI117
I186
sI118
I188
sI119
I188
sI120
I188
sI121
I188
sI122
I189
sI123
I190
sI124
I191
sI125
I192
sI126
I192
sI127
I192
sI128
I192
sI129
I192
sI130
I192
sI131
I192
sI132
I193
sI133
I193
sI134
I194
sI135
I195
sI136
I195
sI137
I195
sI138
I195
sI139
I195
sI140
I196
sI141
I198
sI142
I199
sI143
I199
sI144
I199
sI145
I199
sI146
I200
sI147
I200
sI148
I200
sI149
I200
sI150
I200
sI151
I200
sI152
I200
sI153
I201
sI154
I203
sI155
I204
sI156
I204
sI157
I204
sI158
I205
sI159
I208
sI160
I208
sI161
I209
sI162
I210
sI163
I212
sI164
I212
sI165
I212
sI166
I213
sI167
I213
sI168
I213
sI169
I214
sI170
I214
sI171
I216
sI172
I218
sI173
I220
sI174
I220
sI175
I220
sI176
I220
sI177
I220
sI178
I222
sI179
I222
sI180
I222
sI181
I222
sI182
I223
sI183
I223
sI184
I223
sI185
I223
sI186
I224
sI187
I224
sI188
I225
sI189
I225
sI190
I227
sI191
I227
sI192
I229
sI193
I229
sI194
I229
sI195
I232
sI196
I234
sI197
I234
sI198
I236
sI199
I238
sI200
I241
sI201
I241
sI202
I241
sI203
I241
sI204
I241
sI205
I241
sI206
I241
sI207
I241
sI208
I241
sI209
I241
sI210
I241
sI211
I242
sI212
I242
sI213
I242
sI214
I242
sI215
I242
sI216
I242
sI217
I242
sI218
I243
sI219
I243
sI220
I244
sI221
I244
sI222
I244
sI223
I245
sI224
I246
sI225
I246
sI226
I246
sI227
I247
sI228
I249
sI229
I250
sI230
I250
sI231
I250
sI232
I250
sI233
I250
sI234
I250
sI235
I251
sI236
I251
sI237
I252
sI238
I253
sI239
I253
sI240
I254
sI241
I255
sI242
I255
sI243
I255
sI244
I255
sI245
I256
sI246
I256
sI247
I256
sI248
I257
sI249
I258
sI250
I259
sI251
I260
sI252
I260
sI253
I262
sI254
I262
sI255
I262
sI256
I262
sI257
I264
sI258
I264
sI259
I264
sI260
I264
sI261
I264
sI262
I264
sI263
I264
sI264
I264
sI265
I265
sI266
I265
sI267
I265
sI268
I265
sI269
I265
sI270
I265
sI271
I265
sI272
I265
sI273
I265
sI274
I265
sI275
I269
sI276
I272
sI277
I272
sI278
I274
sI279
I276
sI280
I276
sI281
I276
sI282
I280
sI283
I281
sI284
I284
sI285
I286
sI286
I291
sI287
I292
sI288
I293
sI289
I295
sI290
I297
sI291
I298
sI292
I298
sI293
I301
sI294
I308
sI295
I309
sI296
I312
sI297
I312
sI298
I312
sI299
I313
sI300
I313
sI301
I313
sI302
I313
sI303
I314
sI304
I314
sI305
I314
sI306
I316
sI307
I316
sI308
I317
sI309
I317
sI310
I319
sI311
I320
sI312
I323
sI313
I323
sI314
I324
sI315
I324
sI316
I327
sI317
I328
sI318
I328
sI319
I328
sI320
I328
sI321
I328
sI322
I329
sI323
I329
sI324
I329
sI325
I329
sI326
I329
sI327
I329
sI328
I329
sI329
I330
sI330
I331
sI331
I331
sI332
I331
sI333
I331
sI334
I331
sI335
I331
sI336
I332
sI337
I332
sI338
I332
sI339
I333
sI340
I333
sI341
I335
sI342
I335
sI343
I339
sI344
I339
sI345
I339
sI346
I339
sI347
I340
sI348
I340
sI349
I340
sI350
I340
sI351
I342
sI352
I343
sI353
I343
sI354
I343
sI355
I343
sI356
I343
sI357
I343
sI358
I344
sI359
I344
sI360
I346
sI361
I346
sI362
I346
sI363
I348
sI364
I349
sI365
I349
sI366
I350
sI367
I351
sI368
I352
sI369
I352
sI370
I353
sI371
I354
sI372
I354
sI373
I355
sI374
I355
sI375
I355
sI376
I355
sI377
I355
sI378
I355
sI379
I355
sI380
I355
sI381
I358
sI382
I359
sI383
I359
sI384
I361
sI385
I361
sI386
I362
sI387
I362
sI388
I362
sI389
I362
sI390
I362
sI391
I362
sI392
I362
sI393
I362
sI394
I362
sI395
I362
sI396
I362
sI397
I362
sI398
I362
sI399
I362
sI400
I362
sI401
I362
sI402
I363
sI403
I363
sI404
I366
sI405
I366
sI406
I366
sI407
I366
sI408
I369
sI409
I369
sI410
I369
sI411
I369
sI412
I369
sI413
I369
sI414
I369
s.