(dp0
I0
I0
sI1
I1
sI2
I5
sI3
I9
sI4
I11
sI5
I11
sI6
I15
sI7
I17
sI8
I22
sI9
I24
sI10
I26
sI11
I30
sI12
I35
sI13
I38
sI14
I43
sI15
I44
sI16
I45
sI17
I46
sI18
I46
sI19
I47
sI20
I52
sI21
I55
sI22
I56
sI23
I60
sI24
I61
sI25
I62
sI26
I65
sI27
I67
sI28
I67
sI29
I71
sI30
I72
sI31
I74
sI32
I75
sI33
I75
sI34
I78
sI35
I81
sI36
I86
sI37
I88
sI38
I100
sI39
I130
sI40
I153
sI41
I168
sI42
I176
sI43
I188
sI44
I192
sI45
I199
sI46
I203
sI47
I210
sI48
I211
sI49
I215
sI50
I224
sI51
I235
sI52
I239
sI53
I242
sI54
I251
sI55
I252
sI56
I256
sI57
I259
sI58
I261
sI59
I261
sI60
I266
sI61
I267
sI62
I269
sI63
I270
sI64
I270
sI65
I270
sI66
I272
sI67
I276
sI68
I277
sI69
I278
sI70
I280
sI71
I280
sI72
I282
sI73
I283
sI74
I286
sI75
I287
sI76
I288
sI77
I289
sI78
I290
sI79
I292
sI80
I300
sI81
I301
sI82
I301
sI83
I302
sI84
I302
sI85
I302
sI86
I303
sI87
I305
sI88
I306
sI89
I306
sI90
I308
sI91
I308
sI92
I308
sI93
I309
sI94
I309
sI95
I309
sI96
I310
sI97
I312
sI98
I312
sI99
I314
sI100
I315
sI101
I319
sI102
I319
sI103
I320
sI104
I320
sI105
I320
sI106
I322
sI107
I323
sI108
I324
sI109
I324
sI110
I328
sI111
I329
sI112
I334
sI113
I335
sI114
I336
sI115
I337
sI116
I337
sI117
I340
sI118
I340
sI119
I340
sI120
I340
sI121
I340
sI122
I340
sI123
I340
sI124
I342
sI125
I342
sI126
I342
sI127
I342
sI128
I342
sI129
I344
sI130
I344
sI131
I344
sI132
I344
sI133
I344
sI134
I347
sI135
I348
sI136
I348
sI137
I348
sI138
I350
sI139
I350
sI140
I354
sI141
I354
sI142
I354
sI143
I354
sI144
I354
sI145
I354
sI146
I354
sI147
I354
sI148
I355
sI149
I355
sI150
I355
sI151
I355
sI152
I355
sI153
I355
sI154
I356
sI155
I356
sI156
I356
sI157
I356
sI158
I356
sI159
I356
sI160
I357
sI161
I357
sI162
I357
sI163
I357
sI164
I357
sI165
I357
sI166
I357
sI167
I357
sI168
I358
sI169
I358
sI170
I358
sI171
I358
sI172
I358
sI173
I358
sI174
I358
sI175
I358
sI176
I358
sI177
I358
sI178
I358
s.