(dp0
I0
I0
sI1
I1
sI2
I1
sI3
I1
sI4
I5
sI5
I5
sI6
I5
sI7
I5
sI8
I7
sI9
I10
sI10
I19
sI11
I31
sI12
I42
sI13
I52
sI14
I64
sI15
I71
sI16
I83
sI17
I91
sI18
I95
sI19
I106
sI20
I114
sI21
I123
sI22
I129
sI23
I140
sI24
I154
sI25
I168
sI26
I176
sI27
I181
sI28
I187
sI29
I193
sI30
I209
sI31
I214
sI32
I225
sI33
I235
sI34
I246
sI35
I255
sI36
I266
sI37
I271
sI38
I275
sI39
I288
sI40
I302
sI41
I314
sI42
I328
sI43
I331
sI44
I338
sI45
I351
sI46
I369
sI47
I394
sI48
I410
sI49
I425
sI50
I433
sI51
I444
sI52
I481
sI53
I525
sI54
I550
sI55
I629
sI56
I752
sI57
I862
sI58
I909
sI59
I958
sI60
I991
sI61
I1015
sI62
I1036
sI63
I1067
sI64
I1081
sI65
I1104
sI66
I1118
sI67
I1135
sI68
I1144
sI69
I1159
sI70
I1166
sI71
I1174
sI72
I1190
sI73
I1192
sI74
I1202
sI75
I1209
sI76
I1213
sI77
I1224
sI78
I1230
sI79
I1240
sI80
I1242
sI81
I1253
sI82
I1269
sI83
I1284
sI84
I1296
sI85
I1312
sI86
I1325
sI87
I1339
sI88
I1349
sI89
I1355
sI90
I1362
sI91
I1374
sI92
I1380
sI93
I1385
sI94
I1386
sI95
I1389
sI96
I1391
sI97
I1394
sI98
I1395
sI99
I1399
sI100
I1400
sI101
I1400
sI102
I1401
sI103
I1401
sI104
I1406
sI105
I1407
sI106
I1409
sI107
I1410
sI108
I1411
sI109
I1412
sI110
I1412
sI111
I1413
sI112
I1414
sI113
I1417
sI114
I1425
sI115
I1427
sI116
I1434
sI117
I1437
sI118
I1438
sI119
I1441
sI120
I1443
sI121
I1448
sI122
I1449
sI123
I1450
sI124
I1451
sI125
I1451
sI126
I1451
sI127
I1456
sI128
I1459
sI129
I1460
sI130
I1462
sI131
I1463
sI132
I1464
sI133
I1466
sI134
I1467
sI135
I1470
sI136
I1471
sI137
I1473
sI138
I1473
sI139
I1473
sI140
I1473
sI141
I1477
sI142
I1478
sI143
I1479
sI144
I1480
sI145
I1483
sI146
I1483
sI147
I1488
sI148
I1492
sI149
I1494
sI150
I1494
sI151
I1494
sI152
I1497
sI153
I1498
sI154
I1500
sI155
I1500
sI156
I1504
sI157
I1504
sI158
I1504
sI159
I1504
sI160
I1506
sI161
I1506
sI162
I1507
sI163
I1507
sI164
I1508
sI165
I1508
sI166
I1509
sI167
I1509
sI168
I1509
sI169
I1509
sI170
I1509
sI171
I1509
sI172
I1512
sI173
I1512
sI174
I1513
sI175
I1513
sI176
I1515
sI177
I1516
sI178
I1516
s.