(dp0
I0
I0
sI1
I0
sI2
I3
sI3
I3
sI4
I3
sI5
I3
sI6
I5
sI7
I6
sI8
I6
sI9
I6
sI10
I6
sI11
I6
sI12
I8
sI13
I8
sI14
I8
sI15
I10
sI16
I12
sI17
I14
sI18
I17
sI19
I17
sI20
I21
sI21
I21
sI22
I25
sI23
I30
sI24
I36
sI25
I40
sI26
I46
sI27
I48
sI28
I52
sI29
I56
sI30
I60
sI31
I68
sI32
I74
sI33
I76
sI34
I82
sI35
I90
sI36
I100
sI37
I104
sI38
I108
sI39
I108
sI40
I108
sI41
I110
sI42
I112
sI43
I116
sI44
I120
sI45
I122
sI46
I122
sI47
I128
sI48
I128
sI49
I132
sI50
I132
sI51
I136
sI52
I141
sI53
I143
sI54
I149
sI55
I151
sI56
I151
sI57
I151
sI58
I152
sI59
I152
s.