(dp0
I0
I0
sI1
I1
sI2
I2
sI3
I2
sI4
I2
sI5
I3
sI6
I4
sI7
I4
sI8
I4
sI9
I4
sI10
I5
sI11
I5
sI12
I5
sI13
I6
sI14
I6
sI15
I8
sI16
I10
sI17
I11
sI18
I12
sI19
I12
sI20
I12
sI21
I12
sI22
I13
sI23
I14
sI24
I14
sI25
I14
sI26
I15
sI27
I16
sI28
I18
sI29
I20
sI30
I20
sI31
I20
sI32
I20
sI33
I20
sI34
I20
sI35
I21
sI36
I23
sI37
I23
sI38
I25
sI39
I25
sI40
I25
sI41
I25
sI42
I26
sI43
I27
sI44
I27
sI45
I27
sI46
I27
sI47
I28
sI48
I28
sI49
I29
sI50
I29
sI51
I29
sI52
I30
sI53
I31
sI54
I33
sI55
I34
sI56
I34
sI57
I34
sI58
I35
sI59
I36
s.