(dp0
I0
I0
sI1
I1
sI2
I2
sI3
I2
sI4
I2
sI5
I4
sI6
I8
sI7
I9
sI8
I9
sI9
I10
sI10
I12
sI11
I14
sI12
I16
sI13
I18
sI14
I18
sI15
I19
sI16
I21
sI17
I21
sI18
I21
sI19
I24
sI20
I25
sI21
I28
sI22
I28
sI23
I31
sI24
I33
sI25
I33
sI26
I35
sI27
I36
sI28
I38
sI29
I41
sI30
I42
sI31
I44
sI32
I47
sI33
I47
sI34
I49
sI35
I50
sI36
I52
sI37
I53
sI38
I53
sI39
I54
sI40
I55
sI41
I58
sI42
I60
sI43
I60
sI44
I60
sI45
I60
sI46
I63
sI47
I65
sI48
I68
sI49
I70
sI50
I70
sI51
I72
sI52
I73
sI53
I74
sI54
I74
sI55
I76
sI56
I76
sI57
I79
sI58
I81
sI59
I81
sI60
I82
sI61
I84
sI62
I84
sI63
I86
sI64
I87
sI65
I90
sI66
I91
sI67
I92
sI68
I93
sI69
I93
sI70
I95
sI71
I97
sI72
I99
sI73
I101
sI74
I101
sI75
I101
sI76
I102
sI77
I105
sI78
I105
sI79
I106
sI80
I106
sI81
I106
sI82
I108
sI83
I110
sI84
I111
sI85
I111
sI86
I115
sI87
I117
sI88
I121
sI89
I122
sI90
I126
sI91
I128
sI92
I130
sI93
I130
sI94
I132
sI95
I134
sI96
I136
sI97
I137
sI98
I137
sI99
I139
sI100
I139
sI101
I139
sI102
I141
sI103
I141
sI104
I141
sI105
I142
sI106
I142
sI107
I146
sI108
I147
sI109
I151
sI110
I152
sI111
I153
sI112
I156
sI113
I156
sI114
I157
sI115
I158
sI116
I161
sI117
I162
sI118
I165
sI119
I166
sI120
I170
sI121
I171
sI122
I171
sI123
I175
sI124
I178
sI125
I179
sI126
I180
sI127
I182
sI128
I182
sI129
I183
sI130
I183
sI131
I185
sI132
I185
sI133
I189
sI134
I191
sI135
I192
sI136
I193
sI137
I194
sI138
I194
sI139
I195
sI140
I196
sI141
I197
sI142
I197
sI143
I198
sI144
I203
sI145
I204
sI146
I205
sI147
I205
sI148
I208
sI149
I208
sI150
I212
sI151
I214
sI152
I216
sI153
I217
sI154
I220
sI155
I222
sI156
I222
sI157
I224
sI158
I225
sI159
I225
sI160
I225
sI161
I228
sI162
I228
sI163
I231
sI164
I233
sI165
I234
sI166
I239
sI167
I239
sI168
I239
sI169
I241
sI170
I241
sI171
I242
sI172
I244
sI173
I248
sI174
I250
sI175
I250
sI176
I252
sI177
I255
sI178
I255
s.