(dp0
I0
I0
sI1
I1
sI2
I3
sI3
I9
sI4
I9
sI5
I13
sI6
I20
sI7
I23
sI8
I25
sI9
I34
sI10
I41
sI11
I45
sI12
I47
sI13
I49
sI14
I51
sI15
I55
sI16
I58
sI17
I60
sI18
I63
sI19
I71
sI20
I73
sI21
I77
sI22
I82
sI23
I85
sI24
I88
sI25
I90
sI26
I92
sI27
I100
sI28
I102
sI29
I104
sI30
I105
sI31
I108
sI32
I112
sI33
I113
sI34
I116
sI35
I123
sI36
I126
sI37
I129
sI38
I135
sI39
I137
sI40
I139
sI41
I140
sI42
I144
sI43
I146
sI44
I153
sI45
I157
sI46
I165
sI47
I173
sI48
I179
sI49
I181
sI50
I185
sI51
I189
sI52
I191
sI53
I195
sI54
I197
sI55
I201
sI56
I204
sI57
I211
sI58
I213
sI59
I213
sI60
I219
sI61
I221
sI62
I224
sI63
I224
sI64
I227
sI65
I229
sI66
I230
sI67
I231
sI68
I233
sI69
I236
sI70
I241
sI71
I243
sI72
I246
sI73
I250
sI74
I251
sI75
I260
sI76
I261
sI77
I264
sI78
I267
sI79
I273
sI80
I274
sI81
I280
sI82
I285
sI83
I289
sI84
I290
sI85
I294
sI86
I298
sI87
I301
sI88
I303
sI89
I310
sI90
I318
sI91
I324
sI92
I326
sI93
I329
sI94
I334
sI95
I336
sI96
I337
sI97
I338
sI98
I338
sI99
I342
sI100
I343
sI101
I349
sI102
I351
sI103
I353
sI104
I357
sI105
I363
sI106
I366
sI107
I368
sI108
I372
sI109
I380
sI110
I383
sI111
I387
sI112
I391
sI113
I392
sI114
I396
sI115
I397
sI116
I400
sI117
I404
sI118
I409
sI119
I410
sI120
I411
sI121
I414
sI122
I417
sI123
I423
sI124
I423
sI125
I429
sI126
I435
sI127
I437
sI128
I440
sI129
I445
sI130
I447
sI131
I454
sI132
I457
sI133
I459
sI134
I461
sI135
I463
sI136
I465
sI137
I467
sI138
I473
sI139
I475
sI140
I480
sI141
I481
sI142
I488
sI143
I490
sI144
I493
sI145
I496
sI146
I499
sI147
I500
sI148
I502
sI149
I511
sI150
I515
sI151
I518
sI152
I523
sI153
I525
sI154
I526
sI155
I528
sI156
I528
sI157
I529
sI158
I531
sI159
I531
sI160
I533
sI161
I535
sI162
I535
sI163
I540
sI164
I541
sI165
I544
sI166
I549
sI167
I550
sI168
I551
sI169
I552
sI170
I553
sI171
I556
sI172
I558
sI173
I559
sI174
I560
sI175
I562
sI176
I568
sI177
I570
sI178
I570
s.